target datalayout = "e-m:e-p270:32:32-p271:32:32-p272:64:64-i64:64-i128:128-f80:128-n8:16:32:64-S128"
target triple = "x86_64-pc-linux-gnu"

%class.RtpAudioFile = type { %class.QIODevice, ptr, ptr, i64, i64, i64, i64, %struct.rtp_frame_info }
%class.QIODevice = type { %class.QObject }
%class.QObject = type { ptr, %class.QScopedPointer }
%class.QScopedPointer = type { ptr }
%struct.rtp_frame_info = type { i64, i64, i64, i32, i32 }

; Function Attrs: mustprogress uwtable
define noundef i64 @_ZN12RtpAudioFile13readFrameDataEPcx(ptr noundef nonnull align 8 dereferenceable(96) %0, ptr noundef %1, i64 noundef %2) #0 align 2 {
  %4 = alloca i64, align 8
  %5 = alloca ptr, align 8
  %6 = alloca ptr, align 8
  %7 = alloca i64, align 8
  %8 = alloca i64, align 8
  %9 = alloca i64, align 8
  store ptr %0, ptr %5, align 8
  store ptr %1, ptr %6, align 8
  store i64 %2, ptr %7, align 8
  %10 = load ptr, ptr %5, align 8
  %11 = getelementptr inbounds %class.RtpAudioFile, ptr %10, i32 0, i32 7
  %12 = getelementptr inbounds %struct.rtp_frame_info, ptr %11, i32 0, i32 2
  %13 = load i64, ptr %12, align 8
  %14 = getelementptr inbounds %class.RtpAudioFile, ptr %10, i32 0, i32 3
  %15 = load i64, ptr %14, align 8
  %16 = getelementptr inbounds %class.RtpAudioFile, ptr %10, i32 0, i32 7
  %17 = getelementptr inbounds %struct.rtp_frame_info, ptr %16, i32 0, i32 0
  %18 = load i64, ptr %17, align 8
  %19 = sub i64 %15, %18
  %20 = sub i64 %13, %19
  store i64 %20, ptr %8, align 8
  %21 = load i64, ptr %8, align 8
  %22 = load i64, ptr %7, align 8
  %23 = icmp slt i64 %21, %22
  br i1 %23, label %24, label %25

24:                                               ; preds = %3
  store i64 -1, ptr %4, align 8
  br label %50

25:                                               ; preds = %3
  %26 = getelementptr inbounds %class.RtpAudioFile, ptr %10, i32 0, i32 7
  %27 = getelementptr inbounds %struct.rtp_frame_info, ptr %26, i32 0, i32 4
  %28 = load i32, ptr %27, align 4
  %29 = icmp eq i32 %28, 0
  br i1 %29, label %30, label %40

30:                                               ; preds = %25
  %31 = getelementptr inbounds %class.RtpAudioFile, ptr %10, i32 0, i32 1
  %32 = load ptr, ptr %31, align 8
  %33 = load ptr, ptr %6, align 8
  %34 = load i64, ptr %7, align 8
  %35 = call noundef i64 @_ZN9QIODevice4readEPcx(ptr noundef nonnull align 8 dereferenceable(16) %32, ptr noundef %33, i64 noundef %34)
  store i64 %35, ptr %9, align 8
  %36 = load i64, ptr %9, align 8
  %37 = getelementptr inbounds %class.RtpAudioFile, ptr %10, i32 0, i32 3
  %38 = load i64, ptr %37, align 8
  %39 = add i64 %38, %36
  store i64 %39, ptr %37, align 8
  br label %48

40:                                               ; preds = %25
  %41 = load ptr, ptr %6, align 8
  %42 = load i64, ptr %7, align 8
  call void @llvm.memset.p0.i64(ptr align 1 %41, i8 0, i64 %42, i1 false)
  %43 = load i64, ptr %7, align 8
  %44 = getelementptr inbounds %class.RtpAudioFile, ptr %10, i32 0, i32 3
  %45 = load i64, ptr %44, align 8
  %46 = add i64 %45, %43
  store i64 %46, ptr %44, align 8
  %47 = load i64, ptr %7, align 8
  store i64 %47, ptr %9, align 8
  br label %48

48:                                               ; preds = %40, %30
  %49 = load i64, ptr %9, align 8
  store i64 %49, ptr %4, align 8
  br label %50

50:                                               ; preds = %48, %24
  %51 = load i64, ptr %4, align 8
  ret i64 %51
}