; Function Attrs: mustprogress uwtable
define noundef i64 @_ZN12RtpAudioFile13readFrameDataEPcx(ptr nocapture noundef nonnull align 8 dereferenceable(96) %0, ptr noundef %1, i64 noundef %2) local_unnamed_addr #0 align 2 {
  %4 = getelementptr inbounds i8, ptr %0, i64 64
  %5 = getelementptr inbounds i8, ptr %0, i64 80
  %6 = load i64, ptr %5, align 8
  %7 = getelementptr inbounds i8, ptr %0, i64 32
  %8 = load i64, ptr %7, align 8
  %9 = load i64, ptr %4, align 8
  %.neg = sub i64 %6, %8
  %10 = add i64 %.neg, %9
  %11 = icmp slt i64 %10, %2
  br i1 %11, label %24, label %12

12:                                               ; preds = %3
  %13 = getelementptr inbounds i8, ptr %0, i64 92
  %14 = load i32, ptr %13, align 4
  %15 = icmp eq i32 %14, 0
  br i1 %15, label %16, label %20

16:                                               ; preds = %12
  %17 = getelementptr inbounds i8, ptr %0, i64 16
  %18 = load ptr, ptr %17, align 8
  %19 = tail call noundef i64 @_ZN9QIODevice4readEPcx(ptr noundef nonnull align 8 dereferenceable(16) %18, ptr noundef %1, i64 noundef %2)
  br label %21

20:                                               ; preds = %12
  tail call void @llvm.memset.p0.i64(ptr align 1 %1, i8 0, i64 %2, i1 false)
  br label %21

21:                                               ; preds = %20, %16
  %.sink14 = phi i64 [ %2, %20 ], [ %19, %16 ]
  %22 = load i64, ptr %7, align 8
  %23 = add i64 %22, %.sink14
  store i64 %23, ptr %7, align 8
  br label %24

24:                                               ; preds = %3, %21
  %.011 = phi i64 [ %.sink14, %21 ], [ -1, %3 ]
  ret i64 %.011
}